; Function Attrs: cold nounwind optsize uwtable
define internal i32 @vaapi_encode_vp9_init(ptr noundef %0) #0 {
  %2 = getelementptr inbounds nuw i8, ptr %0, i64 32
  %3 = load ptr, ptr %2, align 8, !tbaa !4
  %4 = getelementptr inbounds nuw i8, ptr %3, i64 1192
  store ptr @vaapi_encode_type_vp9, ptr %4, align 8, !tbaa !27
  %5 = getelementptr inbounds nuw i8, ptr %3, i64 1220
  store i32 0, ptr %5, align 4, !tbaa !47
  %6 = tail call i32 @ff_vaapi_encode_init(ptr noundef %0) #10
  ret i32 %6
}